; Function Attrs: mustprogress nofree norecurse nosync nounwind willreturn memory(read, inaccessiblemem: none) uwtable
define internal range(i32 -1, 2) i32 @y_cmp(ptr noundef readonly captures(none) %0, ptr noundef readonly captures(none) %1) #5 {
  %3 = load ptr, ptr %0, align 8
  %4 = getelementptr inbounds nuw i8, ptr %3, i64 8
  %5 = load double, ptr %4, align 8
  %6 = load ptr, ptr %1, align 8
  %7 = getelementptr inbounds nuw i8, ptr %6, i64 8
  %8 = load double, ptr %7, align 8
  %9 = fcmp oeq double %5, %8
  %10 = fcmp ogt double %5, %8
  %11 = select i1 %10, i32 1, i32 -1
  %.0 = select i1 %9, i32 0, i32 %11
  ret i32 %.0
}